; Function Attrs: mustprogress nounwind uwtable
define dso_local void @_ZN4llvm20PredicateInfoBuilder21popStackUntilDFSScopeERNS_15SmallVectorImplINS_8ValueDFSEEERKS2_(ptr nocapture noundef nonnull readonly align 8 dereferenceable(1632) %0, ptr noundef nonnull align 8 dereferenceable(16) %1, ptr nocapture noundef nonnull readonly align 8 dereferenceable(41) %2) local_unnamed_addr #0 align 2 {
  %4 = tail call noundef zeroext i1 @_ZNK4llvm15SmallVectorBaseIjE5emptyEv(ptr noundef nonnull align 8 dereferenceable(16) %1) #19
  br i1 %4, label %.critedge, label %.lr.ph

.lr.ph:                                           ; preds = %3, %6
  %5 = tail call noundef zeroext i1 @_ZNK4llvm20PredicateInfoBuilder14stackIsInScopeERKNS_15SmallVectorImplINS_8ValueDFSEEERKS2_(ptr noundef nonnull align 8 dereferenceable(1632) %0, ptr noundef nonnull align 8 dereferenceable(16) %1, ptr noundef nonnull align 8 dereferenceable(41) %2)
  br i1 %5, label %.critedge, label %6

6:                                                ; preds = %.lr.ph
  %7 = tail call noundef i64 @_ZNK4llvm15SmallVectorBaseIjE4sizeEv(ptr noundef nonnull align 8 dereferenceable(16) %1) #19
  %8 = add i64 %7, -1
  tail call void @_ZN4llvm15SmallVectorBaseIjE8set_sizeEm(ptr noundef nonnull align 8 dereferenceable(16) %1, i64 noundef %8) #19
  %9 = tail call noundef zeroext i1 @_ZNK4llvm15SmallVectorBaseIjE5emptyEv(ptr noundef nonnull align 8 dereferenceable(16) %1) #19
  br i1 %9, label %.critedge, label %.lr.ph, !llvm.loop !4

.critedge:                                        ; preds = %.lr.ph, %6, %3
  ret void
}